target datalayout = "e-m:e-p270:32:32-p271:32:32-p272:64:64-i64:64-i128:128-f80:128-n8:16:32:64-S128"
target triple = "x86_64-pc-linux-gnu"

%"class.std::__cxx11::basic_string" = type { %"struct.std::__cxx11::basic_string<char>::_Alloc_hider", i64, %union.anon.8 }
%"struct.std::__cxx11::basic_string<char>::_Alloc_hider" = type { ptr }
%union.anon.8 = type { i64, [8 x i8] }
%"class.llvm::Module" = type <{ ptr, %"class.llvm::SymbolTableList", %"class.llvm::SymbolTableList.9", %"class.llvm::SymbolTableList.18", %"class.llvm::SymbolTableList.27", %"class.llvm::iplist", %"class.std::__cxx11::basic_string", %"class.std::unique_ptr", %"class.llvm::StringMap.45", %"class.std::unique_ptr.46", %"class.std::unique_ptr.54", %"class.std::__cxx11::basic_string", %"class.std::__cxx11::basic_string", %"class.std::__cxx11::basic_string", %"class.llvm::StringMap.62", %"class.llvm::DataLayout", %"class.llvm::StringMap.83", %"class.llvm::DenseMap.84", ptr, i8, [7 x i8] }>
%"class.llvm::SymbolTableList" = type { %"class.llvm::iplist_impl" }
%"class.llvm::iplist_impl" = type { %"class.llvm::simple_ilist" }
%"class.llvm::simple_ilist" = type { %"class.llvm::ilist_sentinel" }
%"class.llvm::ilist_sentinel" = type { %"class.llvm::ilist_node_impl" }
%"class.llvm::ilist_node_impl" = type { %"class.llvm::ilist_node_base" }
%"class.llvm::ilist_node_base" = type { %"class.llvm::ilist_detail::node_base_prevnext" }
%"class.llvm::ilist_detail::node_base_prevnext" = type { ptr, ptr }
%"class.llvm::SymbolTableList.9" = type { %"class.llvm::iplist_impl.10" }
%"class.llvm::iplist_impl.10" = type { %"class.llvm::simple_ilist.13" }
%"class.llvm::simple_ilist.13" = type { %"class.llvm::ilist_sentinel.15" }
%"class.llvm::ilist_sentinel.15" = type { %"class.llvm::ilist_node_impl.16" }
%"class.llvm::ilist_node_impl.16" = type { %"class.llvm::ilist_node_base" }
%"class.llvm::SymbolTableList.18" = type { %"class.llvm::iplist_impl.19" }
%"class.llvm::iplist_impl.19" = type { %"class.llvm::simple_ilist.22" }
%"class.llvm::simple_ilist.22" = type { %"class.llvm::ilist_sentinel.24" }
%"class.llvm::ilist_sentinel.24" = type { %"class.llvm::ilist_node_impl.25" }
%"class.llvm::ilist_node_impl.25" = type { %"class.llvm::ilist_node_base" }
%"class.llvm::SymbolTableList.27" = type { %"class.llvm::iplist_impl.28" }
%"class.llvm::iplist_impl.28" = type { %"class.llvm::simple_ilist.31" }
%"class.llvm::simple_ilist.31" = type { %"class.llvm::ilist_sentinel.33" }
%"class.llvm::ilist_sentinel.33" = type { %"class.llvm::ilist_node_impl.34" }
%"class.llvm::ilist_node_impl.34" = type { %"class.llvm::ilist_node_base" }
%"class.llvm::iplist" = type { %"class.llvm::iplist_impl.36" }
%"class.llvm::iplist_impl.36" = type { %"class.llvm::simple_ilist.38" }
%"class.llvm::simple_ilist.38" = type { %"class.llvm::ilist_sentinel.40" }
%"class.llvm::ilist_sentinel.40" = type { %"class.llvm::ilist_node_impl.41" }
%"class.llvm::ilist_node_impl.41" = type { %"class.llvm::ilist_node_base" }
%"class.std::unique_ptr" = type { %"struct.std::__uniq_ptr_data" }
%"struct.std::__uniq_ptr_data" = type { %"class.std::__uniq_ptr_impl" }
%"class.std::__uniq_ptr_impl" = type { %"class.std::tuple" }
%"class.std::tuple" = type { %"struct.std::_Tuple_impl" }
%"struct.std::_Tuple_impl" = type { %"struct.std::_Head_base.44" }
%"struct.std::_Head_base.44" = type { ptr }
%"class.llvm::StringMap.45" = type { %"class.llvm::StringMapImpl" }
%"class.llvm::StringMapImpl" = type { ptr, i32, i32, i32, i32 }
%"class.std::unique_ptr.46" = type { %"struct.std::__uniq_ptr_data.47" }
%"struct.std::__uniq_ptr_data.47" = type { %"class.std::__uniq_ptr_impl.48" }
%"class.std::__uniq_ptr_impl.48" = type { %"class.std::tuple.49" }
%"class.std::tuple.49" = type { %"struct.std::_Tuple_impl.50" }
%"struct.std::_Tuple_impl.50" = type { %"struct.std::_Head_base.53" }
%"struct.std::_Head_base.53" = type { ptr }
%"class.std::unique_ptr.54" = type { %"struct.std::__uniq_ptr_data.55" }
%"struct.std::__uniq_ptr_data.55" = type { %"class.std::__uniq_ptr_impl.56" }
%"class.std::__uniq_ptr_impl.56" = type { %"class.std::tuple.57" }
%"class.std::tuple.57" = type { %"struct.std::_Tuple_impl.58" }
%"struct.std::_Tuple_impl.58" = type { %"struct.std::_Head_base.61" }
%"struct.std::_Head_base.61" = type { ptr }
%"class.llvm::StringMap.62" = type { %"class.llvm::StringMapImpl" }
%"class.llvm::DataLayout" = type { i8, i32, i32, i32, %"struct.llvm::MaybeAlign", %"struct.llvm::MaybeAlign", i32, i32, %"class.llvm::SmallVector", %"class.llvm::SmallVector.63", %"class.llvm::SmallVector.69", %"class.llvm::SmallVector.71", %"class.llvm::SmallVector.73", %"class.std::__cxx11::basic_string", %"struct.llvm::Align", %"struct.llvm::Align", ptr, %"class.llvm::SmallVector.78" }
%"struct.llvm::MaybeAlign" = type { %"class.std::optional" }
%"class.std::optional" = type { %"struct.std::_Optional_base" }
%"struct.std::_Optional_base" = type { %"struct.std::_Optional_payload" }
%"struct.std::_Optional_payload" = type { %"struct.std::_Optional_payload_base" }
%"struct.std::_Optional_payload_base" = type { %"union.std::_Optional_payload_base<llvm::Align>::_Storage", i8 }
%"union.std::_Optional_payload_base<llvm::Align>::_Storage" = type { %"struct.std::_Optional_payload_base<llvm::Align>::_Empty_byte" }
%"struct.std::_Optional_payload_base<llvm::Align>::_Empty_byte" = type { i8 }
%"class.llvm::SmallVector" = type { %"class.llvm::SmallVectorImpl", %"struct.llvm::SmallVectorStorage" }
%"class.llvm::SmallVectorImpl" = type { %"class.llvm::SmallVectorTemplateBase" }
%"class.llvm::SmallVectorTemplateBase" = type { %"class.llvm::SmallVectorTemplateCommon" }
%"class.llvm::SmallVectorTemplateCommon" = type { %"class.llvm::SmallVectorBase" }
%"class.llvm::SmallVectorBase" = type { ptr, i64, i64 }
%"struct.llvm::SmallVectorStorage" = type { [8 x i8] }
%"class.llvm::SmallVector.63" = type { %"class.llvm::SmallVectorImpl.64", %"struct.llvm::SmallVectorStorage.68" }
%"class.llvm::SmallVectorImpl.64" = type { %"class.llvm::SmallVectorTemplateBase.65" }
%"class.llvm::SmallVectorTemplateBase.65" = type { %"class.llvm::SmallVectorTemplateCommon.66" }
%"class.llvm::SmallVectorTemplateCommon.66" = type { %"class.llvm::SmallVectorBase.67" }
%"class.llvm::SmallVectorBase.67" = type { ptr, i32, i32 }
%"struct.llvm::SmallVectorStorage.68" = type { [48 x i8] }
%"class.llvm::SmallVector.69" = type { %"class.llvm::SmallVectorImpl.64", %"struct.llvm::SmallVectorStorage.70" }
%"struct.llvm::SmallVectorStorage.70" = type { [32 x i8] }
%"class.llvm::SmallVector.71" = type { %"class.llvm::SmallVectorImpl.64", %"struct.llvm::SmallVectorStorage.72" }
%"struct.llvm::SmallVectorStorage.72" = type { [80 x i8] }
%"class.llvm::SmallVector.73" = type { %"class.llvm::SmallVectorImpl.74", %"struct.llvm::SmallVectorStorage.77" }
%"class.llvm::SmallVectorImpl.74" = type { %"class.llvm::SmallVectorTemplateBase.75" }
%"class.llvm::SmallVectorTemplateBase.75" = type { %"class.llvm::SmallVectorTemplateCommon.76" }
%"class.llvm::SmallVectorTemplateCommon.76" = type { %"class.llvm::SmallVectorBase.67" }
%"struct.llvm::SmallVectorStorage.77" = type { [128 x i8] }
%"struct.llvm::Align" = type { i8 }
%"class.llvm::SmallVector.78" = type { %"class.llvm::SmallVectorImpl.79", %"struct.llvm::SmallVectorStorage.82" }
%"class.llvm::SmallVectorImpl.79" = type { %"class.llvm::SmallVectorTemplateBase.80" }
%"class.llvm::SmallVectorTemplateBase.80" = type { %"class.llvm::SmallVectorTemplateCommon.81" }
%"class.llvm::SmallVectorTemplateCommon.81" = type { %"class.llvm::SmallVectorBase.67" }
%"struct.llvm::SmallVectorStorage.82" = type { [32 x i8] }
%"class.llvm::StringMap.83" = type { %"class.llvm::StringMapImpl" }
%"class.llvm::DenseMap.84" = type <{ ptr, i32, i32, i32, [4 x i8] }>
%"class.llvm::ilist_iterator.191" = type { ptr }

; Function Attrs: mustprogress nounwind uwtable
define linkonce_odr hidden noundef ptr @_ZNK4llvm12ilist_detail18node_base_prevnextINS_15ilist_node_baseILb0EvEELb0EE7getNextEv(ptr noundef nonnull align 8 dereferenceable(16) %0) #0 comdat align 2 {
  %2 = alloca ptr, align 8
  store ptr %0, ptr %2, align 8
  %3 = load ptr, ptr %2, align 8
  %4 = getelementptr inbounds nuw %"class.llvm::ilist_detail::node_base_prevnext", ptr %3, i32 0, i32 1
  %5 = load ptr, ptr %4, align 8
  ret ptr %5
}

; Function Attrs: mustprogress nounwind uwtable
define linkonce_odr hidden noundef ptr @_ZN4llvm15ilist_node_implINS_12ilist_detail12node_optionsINS_14GlobalVariableELb0ELb0EvLb0EvEEE7getNextEv(ptr noundef nonnull align 8 dereferenceable(16) %0) #0 comdat align 2 {
  %2 = alloca ptr, align 8
  store ptr %0, ptr %2, align 8
  %3 = load ptr, ptr %2, align 8
  %4 = call noundef ptr @_ZNK4llvm12ilist_detail18node_base_prevnextINS_15ilist_node_baseILb0EvEELb0EE7getNextEv(ptr noundef nonnull align 8 dereferenceable(16) %3)
  ret ptr %4
}

; Function Attrs: mustprogress nounwind uwtable
define linkonce_odr hidden noundef ptr @_ZN4llvm12ilist_detail10NodeAccess11getValuePtrINS0_12node_optionsINS_14GlobalVariableELb0ELb0EvLb0EvEEEENT_7pointerEPNS_15ilist_node_implIS6_EE(ptr noundef %0) #0 comdat align 2 {
  %2 = alloca ptr, align 8
  store ptr %0, ptr %2, align 8
  %3 = load ptr, ptr %2, align 8
  %4 = icmp eq ptr %3, null
  br i1 %4, label %7, label %5

5:                                                ; preds = %1
  %6 = getelementptr inbounds i8, ptr %3, i64 -56
  br label %8

7:                                                ; preds = %1
  br label %8

8:                                                ; preds = %7, %5
  %9 = phi ptr [ %6, %5 ], [ null, %7 ]
  ret ptr %9
}

; Function Attrs: mustprogress nounwind uwtable
define linkonce_odr hidden noundef nonnull align 8 dereferenceable(8) ptr @_ZN4llvm14ilist_iteratorINS_12ilist_detail12node_optionsINS_14GlobalVariableELb0ELb0EvLb0EvEELb0ELb0EEppEv(ptr noundef nonnull align 8 dereferenceable(8) %0) #0 comdat align 2 {
  %2 = alloca ptr, align 8
  store ptr %0, ptr %2, align 8
  %3 = load ptr, ptr %2, align 8
  %4 = getelementptr inbounds nuw %"class.llvm::ilist_iterator.191", ptr %3, i32 0, i32 0
  %5 = load ptr, ptr %4, align 8
  %6 = call noundef ptr @_ZN4llvm15ilist_node_implINS_12ilist_detail12node_optionsINS_14GlobalVariableELb0ELb0EvLb0EvEEE7getNextEv(ptr noundef nonnull align 8 dereferenceable(16) %5)
  %7 = getelementptr inbounds nuw %"class.llvm::ilist_iterator.191", ptr %3, i32 0, i32 0
  store ptr %6, ptr %7, align 8
  ret ptr %3
}

; Function Attrs: mustprogress nounwind uwtable
define linkonce_odr hidden void @_ZN4llvm14ilist_iteratorINS_12ilist_detail12node_optionsINS_14GlobalVariableELb0ELb0EvLb0EvEELb0ELb0EEC2ERNS_15ilist_node_implIS4_EE(ptr noundef nonnull align 8 dereferenceable(8) %0, ptr noundef nonnull align 8 dereferenceable(16) %1) unnamed_addr #0 comdat align 2 {
  %3 = alloca ptr, align 8
  %4 = alloca ptr, align 8
  store ptr %0, ptr %3, align 8
  store ptr %1, ptr %4, align 8
  %5 = load ptr, ptr %3, align 8
  %6 = getelementptr inbounds nuw %"class.llvm::ilist_iterator.191", ptr %5, i32 0, i32 0
  %7 = load ptr, ptr %4, align 8
  store ptr %7, ptr %6, align 8
  ret void
}

; Function Attrs: mustprogress nounwind uwtable
define linkonce_odr hidden noundef ptr @_ZN4llvm12ilist_detail18SpecificNodeAccessINS0_12node_optionsINS_14GlobalVariableELb0ELb0EvLb0EvEEE11getValuePtrEPNS_15ilist_node_implIS4_EE(ptr noundef %0) #0 comdat align 2 {
  %2 = alloca ptr, align 8
  store ptr %0, ptr %2, align 8
  %3 = load ptr, ptr %2, align 8
  %4 = call noundef ptr @_ZN4llvm12ilist_detail10NodeAccess11getValuePtrINS0_12node_optionsINS_14GlobalVariableELb0ELb0EvLb0EvEEEENT_7pointerEPNS_15ilist_node_implIS6_EE(ptr noundef %3)
  ret ptr %4
}

; Function Attrs: mustprogress nounwind uwtable
define linkonce_odr hidden ptr @_ZN4llvm12simple_ilistINS_14GlobalVariableEJEE3endEv(ptr noundef nonnull align 8 dereferenceable(16) %0) #0 comdat align 2 {
  %2 = alloca %"class.llvm::ilist_iterator.191", align 8
  %3 = alloca ptr, align 8
  store ptr %0, ptr %3, align 8
  %4 = load ptr, ptr %3, align 8
  %5 = getelementptr inbounds nuw %"class.llvm::simple_ilist", ptr %4, i32 0, i32 0
  call void @_ZN4llvm14ilist_iteratorINS_12ilist_detail12node_optionsINS_14GlobalVariableELb0ELb0EvLb0EvEELb0ELb0EEC2ERNS_15ilist_node_implIS4_EE(ptr noundef nonnull align 8 dereferenceable(8) %2, ptr noundef nonnull align 8 dereferenceable(16) %5)
  %6 = getelementptr inbounds nuw %"class.llvm::ilist_iterator.191", ptr %2, i32 0, i32 0
  %7 = load ptr, ptr %6, align 8
  ret ptr %7
}

; Function Attrs: mustprogress nounwind uwtable
define linkonce_odr hidden ptr @_ZN4llvm12simple_ilistINS_14GlobalVariableEJEE5beginEv(ptr noundef nonnull align 8 dereferenceable(16) %0) #0 comdat align 2 {
  %2 = alloca %"class.llvm::ilist_iterator.191", align 8
  %3 = alloca ptr, align 8
  %4 = alloca %"class.llvm::ilist_iterator.191", align 8
  store ptr %0, ptr %3, align 8
  %5 = load ptr, ptr %3, align 8
  %6 = getelementptr inbounds nuw %"class.llvm::simple_ilist", ptr %5, i32 0, i32 0
  call void @_ZN4llvm14ilist_iteratorINS_12ilist_detail12node_optionsINS_14GlobalVariableELb0ELb0EvLb0EvEELb0ELb0EEC2ERNS_15ilist_node_implIS4_EE(ptr noundef nonnull align 8 dereferenceable(8) %4, ptr noundef nonnull align 8 dereferenceable(16) %6)
  %7 = call noundef nonnull align 8 dereferenceable(8) ptr @_ZN4llvm14ilist_iteratorINS_12ilist_detail12node_optionsINS_14GlobalVariableELb0ELb0EvLb0EvEELb0ELb0EEppEv(ptr noundef nonnull align 8 dereferenceable(8) %4)
  call void @llvm.memcpy.p0.p0.i64(ptr align 8 %2, ptr align 8 %7, i64 8, i1 false)
  %8 = getelementptr inbounds nuw %"class.llvm::ilist_iterator.191", ptr %2, i32 0, i32 0
  %9 = load ptr, ptr %8, align 8
  ret ptr %9
}

; Function Attrs: mustprogress nounwind uwtable
define linkonce_odr hidden noundef ptr @_ZN4llvm4wrapEPKNS_5ValueE(ptr noundef %0) #0 comdat {
  %2 = alloca ptr, align 8
  store ptr %0, ptr %2, align 8
  %3 = load ptr, ptr %2, align 8
  ret ptr %3
}

; Function Attrs: mustprogress nounwind uwtable
define linkonce_odr hidden noundef nonnull align 8 dereferenceable(81) ptr @_ZNK4llvm14ilist_iteratorINS_12ilist_detail12node_optionsINS_14GlobalVariableELb0ELb0EvLb0EvEELb0ELb0EEdeEv(ptr noundef nonnull align 8 dereferenceable(8) %0) #0 comdat align 2 {
  %2 = alloca ptr, align 8
  store ptr %0, ptr %2, align 8
  %3 = load ptr, ptr %2, align 8
  %4 = getelementptr inbounds nuw %"class.llvm::ilist_iterator.191", ptr %3, i32 0, i32 0
  %5 = load ptr, ptr %4, align 8
  %6 = call noundef ptr @_ZN4llvm12ilist_detail18SpecificNodeAccessINS0_12node_optionsINS_14GlobalVariableELb0ELb0EvLb0EvEEE11getValuePtrEPNS_15ilist_node_implIS4_EE(ptr noundef %5)
  ret ptr %6
}

; Function Attrs: mustprogress nounwind uwtable
define linkonce_odr hidden noundef zeroext i1 @_ZN4llvmeqERKNS_14ilist_iteratorINS_12ilist_detail12node_optionsINS_14GlobalVariableELb0ELb0EvLb0EvEELb0ELb0EEES7_(ptr noundef nonnull align 8 dereferenceable(8) %0, ptr noundef nonnull align 8 dereferenceable(8) %1) #0 comdat {
  %3 = alloca ptr, align 8
  %4 = alloca ptr, align 8
  store ptr %0, ptr %3, align 8
  store ptr %1, ptr %4, align 8
  %5 = load ptr, ptr %3, align 8
  %6 = getelementptr inbounds nuw %"class.llvm::ilist_iterator.191", ptr %5, i32 0, i32 0
  %7 = load ptr, ptr %6, align 8
  %8 = load ptr, ptr %4, align 8
  %9 = getelementptr inbounds nuw %"class.llvm::ilist_iterator.191", ptr %8, i32 0, i32 0
  %10 = load ptr, ptr %9, align 8
  %11 = icmp eq ptr %7, %10
  ret i1 %11
}

; Function Attrs: mustprogress nounwind uwtable
define linkonce_odr hidden ptr @_ZN4llvm6Module10global_endEv(ptr noundef nonnull align 8 dereferenceable(857) %0) #0 comdat align 2 {
  %2 = alloca %"class.llvm::ilist_iterator.191", align 8
  %3 = alloca ptr, align 8
  store ptr %0, ptr %3, align 8
  %4 = load ptr, ptr %3, align 8
  %5 = getelementptr inbounds nuw %"class.llvm::Module", ptr %4, i32 0, i32 1
  %6 = call ptr @_ZN4llvm12simple_ilistINS_14GlobalVariableEJEE3endEv(ptr noundef nonnull align 8 dereferenceable(16) %5)
  %7 = getelementptr inbounds nuw %"class.llvm::ilist_iterator.191", ptr %2, i32 0, i32 0
  store ptr %6, ptr %7, align 8
  %8 = getelementptr inbounds nuw %"class.llvm::ilist_iterator.191", ptr %2, i32 0, i32 0
  %9 = load ptr, ptr %8, align 8
  ret ptr %9
}

; Function Attrs: mustprogress nounwind uwtable
define linkonce_odr hidden ptr @_ZN4llvm6Module12global_beginEv(ptr noundef nonnull align 8 dereferenceable(857) %0) #0 comdat align 2 {
  %2 = alloca %"class.llvm::ilist_iterator.191", align 8
  %3 = alloca ptr, align 8
  store ptr %0, ptr %3, align 8
  %4 = load ptr, ptr %3, align 8
  %5 = getelementptr inbounds nuw %"class.llvm::Module", ptr %4, i32 0, i32 1
  %6 = call ptr @_ZN4llvm12simple_ilistINS_14GlobalVariableEJEE5beginEv(ptr noundef nonnull align 8 dereferenceable(16) %5)
  %7 = getelementptr inbounds nuw %"class.llvm::ilist_iterator.191", ptr %2, i32 0, i32 0
  store ptr %6, ptr %7, align 8
  %8 = getelementptr inbounds nuw %"class.llvm::ilist_iterator.191", ptr %2, i32 0, i32 0
  %9 = load ptr, ptr %8, align 8
  ret ptr %9
}

; Function Attrs: mustprogress nounwind uwtable
define linkonce_odr hidden noundef ptr @_ZN4llvm6unwrapEP16LLVMOpaqueModule(ptr noundef %0) #0 comdat {
  %2 = alloca ptr, align 8
  store ptr %0, ptr %2, align 8
  %3 = load ptr, ptr %2, align 8
  ret ptr %3
}

; Function Attrs: mustprogress nounwind uwtable
define dso_local ptr @LLVMGetFirstGlobal(ptr noundef %0) #0 {
  %2 = alloca ptr, align 8
  %3 = alloca ptr, align 8
  %4 = alloca ptr, align 8
  %5 = alloca %"class.llvm::ilist_iterator.191", align 8
  %6 = alloca %"class.llvm::ilist_iterator.191", align 8
  store ptr %0, ptr %3, align 8
  %7 = load ptr, ptr %3, align 8
  %8 = call noundef ptr @_ZN4llvm6unwrapEP16LLVMOpaqueModule(ptr noundef %7)
  store ptr %8, ptr %4, align 8
  %9 = load ptr, ptr %4, align 8
  %10 = call ptr @_ZN4llvm6Module12global_beginEv(ptr noundef nonnull align 8 dereferenceable(857) %9)
  %11 = getelementptr inbounds nuw %"class.llvm::ilist_iterator.191", ptr %5, i32 0, i32 0
  store ptr %10, ptr %11, align 8
  %12 = load ptr, ptr %4, align 8
  %13 = call ptr @_ZN4llvm6Module10global_endEv(ptr noundef nonnull align 8 dereferenceable(857) %12)
  %14 = getelementptr inbounds nuw %"class.llvm::ilist_iterator.191", ptr %6, i32 0, i32 0
  store ptr %13, ptr %14, align 8
  %15 = call noundef zeroext i1 @_ZN4llvmeqERKNS_14ilist_iteratorINS_12ilist_detail12node_optionsINS_14GlobalVariableELb0ELb0EvLb0EvEELb0ELb0EEES7_(ptr noundef nonnull align 8 dereferenceable(8) %5, ptr noundef nonnull align 8 dereferenceable(8) %6)
  br i1 %15, label %16, label %17

16:                                               ; preds = %1
  store ptr null, ptr %2, align 8
  br label %20

17:                                               ; preds = %1
  %18 = call noundef nonnull align 8 dereferenceable(81) ptr @_ZNK4llvm14ilist_iteratorINS_12ilist_detail12node_optionsINS_14GlobalVariableELb0ELb0EvLb0EvEELb0ELb0EEdeEv(ptr noundef nonnull align 8 dereferenceable(8) %5)
  %19 = call noundef ptr @_ZN4llvm4wrapEPKNS_5ValueE(ptr noundef %18)
  store ptr %19, ptr %2, align 8
  br label %20

20:                                               ; preds = %17, %16
  %21 = load ptr, ptr %2, align 8
  ret ptr %21
}