; Function Attrs: mustprogress nofree norecurse nosync nounwind willreturn memory(argmem: read) uwtable
define dso_local ptr @LLVMGetFirstGlobal(ptr noundef readonly %0) local_unnamed_addr #11 {
  %2 = getelementptr inbounds nuw i8, ptr %0, i64 16
  %3 = load ptr, ptr %2, align 8
  %4 = getelementptr inbounds nuw i8, ptr %0, i64 8
  %5 = icmp eq ptr %3, %4
  %6 = icmp eq ptr %3, null
  %7 = getelementptr inbounds i8, ptr %3, i64 -56
  %8 = or i1 %5, %6
  %.0 = select i1 %8, ptr null, ptr %7
  ret ptr %.0
}